target datalayout = "e-m:e-p270:32:32-p271:32:32-p272:64:64-i64:64-i128:128-f80:128-n8:16:32:64-S128"
target triple = "x86_64-pc-linux-gnu"

%struct.expert_field = type { i32, i32 }

@ei_nas_5gs_extraneous_data = internal global %struct.expert_field zeroinitializer, align 4
@hf_nas_5gs_cmn_dnn = internal global i32 0, align 4
@ei_nas_5gs_dnn_too_long = internal global %struct.expert_field zeroinitializer, align 4
@hf_nas_5gs_mm_length = internal global i32 0, align 4
@ett_nas_5gs_mm_ladn_indic = internal global i32 0, align 4
@.str.1648 = private unnamed_addr constant [18 x i8] c"LADN DNN value %u\00", align 1

; Function Attrs: null_pointer_is_valid sspstrong uwtable
define hidden zeroext i16 @de_nas_5gs_cmn_dnn(ptr noundef %0, ptr noundef %1, ptr noundef %2, i32 noundef %3, i32 noundef %4, ptr noundef %5, i32 noundef %6) #0 {
  %8 = alloca ptr, align 8
  %9 = alloca ptr, align 8
  %10 = alloca ptr, align 8
  %11 = alloca i32, align 4
  %12 = alloca i32, align 4
  %13 = alloca ptr, align 8
  %14 = alloca i32, align 4
  %15 = alloca i32, align 4
  %16 = alloca ptr, align 8
  store ptr %0, ptr %8, align 8
  store ptr %1, ptr %9, align 8
  store ptr %2, ptr %10, align 8
  store i32 %3, ptr %11, align 4
  store i32 %4, ptr %12, align 4
  store ptr %5, ptr %13, align 8
  store i32 %6, ptr %14, align 4
  call void @llvm.lifetime.start.p0(i64 4, ptr %15) #11
  call void @llvm.lifetime.start.p0(i64 8, ptr %16) #11
  %17 = load i32, ptr %11, align 4
  store i32 %17, ptr %15, align 4
  %18 = load ptr, ptr %9, align 8
  %19 = load i32, ptr @hf_nas_5gs_cmn_dnn, align 4
  %20 = load ptr, ptr %8, align 8
  %21 = load i32, ptr %15, align 4
  %22 = load i32, ptr %12, align 4
  %23 = call ptr @proto_tree_add_item(ptr noundef %18, i32 noundef %19, ptr noundef %20, i32 noundef %21, i32 noundef %22, i32 noundef 84)
  store ptr %23, ptr %16, align 8
  %24 = load i32, ptr %12, align 4
  %25 = icmp ugt i32 %24, 100
  br i1 %25, label %26, label %30

26:                                               ; preds = %7
  %27 = load ptr, ptr %10, align 8
  %28 = load ptr, ptr %16, align 8
  %29 = call ptr @expert_add_info(ptr noundef %27, ptr noundef %28, ptr noundef @ei_nas_5gs_dnn_too_long)
  br label %30

30:                                               ; preds = %26, %7
  %31 = load i32, ptr %12, align 4
  %32 = load i32, ptr %15, align 4
  %33 = add i32 %32, %31
  store i32 %33, ptr %15, align 4
  %34 = load i32, ptr %12, align 4
  %35 = load i32, ptr %15, align 4
  %36 = load i32, ptr %11, align 4
  %37 = sub i32 %35, %36
  %38 = icmp ugt i32 %34, %37
  br i1 %38, label %39, label %57

39:                                               ; preds = %30
  %40 = load ptr, ptr %9, align 8
  %41 = load ptr, ptr %10, align 8
  %42 = load ptr, ptr %8, align 8
  %43 = load i32, ptr %15, align 4
  %44 = load i32, ptr %12, align 4
  %45 = load i32, ptr %15, align 4
  %46 = load i32, ptr %11, align 4
  %47 = sub i32 %45, %46
  %48 = sub i32 %44, %47
  %49 = call ptr @proto_tree_add_expert(ptr noundef %40, ptr noundef %41, ptr noundef @ei_nas_5gs_extraneous_data, ptr noundef %42, i32 noundef %43, i32 noundef %48)
  %50 = load i32, ptr %12, align 4
  %51 = load i32, ptr %15, align 4
  %52 = load i32, ptr %11, align 4
  %53 = sub i32 %51, %52
  %54 = sub i32 %50, %53
  %55 = load i32, ptr %15, align 4
  %56 = add i32 %55, %54
  store i32 %56, ptr %15, align 4
  br label %57

57:                                               ; preds = %39, %30
  %58 = load i32, ptr %15, align 4
  %59 = load i32, ptr %11, align 4
  %60 = sub i32 %58, %59
  %61 = trunc i32 %60 to i16
  call void @llvm.lifetime.end.p0(i64 8, ptr %16) #11
  call void @llvm.lifetime.end.p0(i64 4, ptr %15) #11
  ret i16 %61
}

; Function Attrs: null_pointer_is_valid sspstrong uwtable
define internal zeroext i16 @de_nas_5gs_mm_ladn_indic(ptr noundef %0, ptr noundef %1, ptr noundef %2, i32 noundef %3, i32 noundef %4, ptr noundef %5, i32 noundef %6) #0 {
  %8 = alloca ptr, align 8
  %9 = alloca ptr, align 8
  %10 = alloca ptr, align 8
  %11 = alloca i32, align 4
  %12 = alloca i32, align 4
  %13 = alloca ptr, align 8
  %14 = alloca i32, align 4
  %15 = alloca ptr, align 8
  %16 = alloca ptr, align 8
  %17 = alloca i32, align 4
  %18 = alloca i32, align 4
  %19 = alloca i32, align 4
  store ptr %0, ptr %8, align 8
  store ptr %1, ptr %9, align 8
  store ptr %2, ptr %10, align 8
  store i32 %3, ptr %11, align 4
  store i32 %4, ptr %12, align 4
  store ptr %5, ptr %13, align 8
  store i32 %6, ptr %14, align 4
  call void @llvm.lifetime.start.p0(i64 8, ptr %15) #11
  call void @llvm.lifetime.start.p0(i64 8, ptr %16) #11
  call void @llvm.lifetime.start.p0(i64 4, ptr %17) #11
  store i32 1, ptr %17, align 4
  call void @llvm.lifetime.start.p0(i64 4, ptr %18) #11
  call void @llvm.lifetime.start.p0(i64 4, ptr %19) #11
  %20 = load i32, ptr %11, align 4
  store i32 %20, ptr %19, align 4
  br label %21

21:                                               ; preds = %27, %7
  %22 = load i32, ptr %19, align 4
  %23 = load i32, ptr %11, align 4
  %24 = sub i32 %22, %23
  %25 = load i32, ptr %12, align 4
  %26 = icmp ult i32 %24, %25
  br i1 %26, label %27, label %55

27:                                               ; preds = %21
  %28 = load ptr, ptr %9, align 8
  %29 = load ptr, ptr %8, align 8
  %30 = load i32, ptr %19, align 4
  %31 = load i32, ptr @ett_nas_5gs_mm_ladn_indic, align 4
  %32 = load i32, ptr %17, align 4
  %33 = call ptr (ptr, ptr, i32, i32, i32, ptr, ptr, ...) @proto_tree_add_subtree_format(ptr noundef %28, ptr noundef %29, i32 noundef %30, i32 noundef 2, i32 noundef %31, ptr noundef %16, ptr noundef @.str.1648, i32 noundef %32)
  store ptr %33, ptr %15, align 8
  %34 = load ptr, ptr %15, align 8
  %35 = load i32, ptr @hf_nas_5gs_mm_length, align 4
  %36 = load ptr, ptr %8, align 8
  %37 = load i32, ptr %19, align 4
  %38 = call ptr @proto_tree_add_item_ret_uint(ptr noundef %34, i32 noundef %35, ptr noundef %36, i32 noundef %37, i32 noundef 1, i32 noundef 0, ptr noundef %18)
  %39 = load i32, ptr %19, align 4
  %40 = add i32 %39, 1
  store i32 %40, ptr %19, align 4
  %41 = load ptr, ptr %8, align 8
  %42 = load ptr, ptr %15, align 8
  %43 = load ptr, ptr %10, align 8
  %44 = load i32, ptr %19, align 4
  %45 = load i32, ptr %18, align 4
  %46 = call zeroext i16 @de_nas_5gs_cmn_dnn(ptr noundef %41, ptr noundef %42, ptr noundef %43, i32 noundef %44, i32 noundef %45, ptr noundef null, i32 noundef 0)
  %47 = zext i16 %46 to i32
  %48 = load i32, ptr %19, align 4
  %49 = add i32 %48, %47
  store i32 %49, ptr %19, align 4
  %50 = load ptr, ptr %16, align 8
  %51 = load i32, ptr %18, align 4
  %52 = add i32 %51, 1
  call void @proto_item_set_len(ptr noundef %50, i32 noundef %52)
  %53 = load i32, ptr %17, align 4
  %54 = add i32 %53, 1
  store i32 %54, ptr %17, align 4
  br label %21, !llvm.loop !17

55:                                               ; preds = %21
  %56 = load i32, ptr %12, align 4
  %57 = trunc i32 %56 to i16
  call void @llvm.lifetime.end.p0(i64 4, ptr %19) #11
  call void @llvm.lifetime.end.p0(i64 4, ptr %18) #11
  call void @llvm.lifetime.end.p0(i64 4, ptr %17) #11
  call void @llvm.lifetime.end.p0(i64 8, ptr %16) #11
  call void @llvm.lifetime.end.p0(i64 8, ptr %15) #11
  ret i16 %57
}