; Function Attrs: null_pointer_is_valid sspstrong uwtable
define internal noundef zeroext i16 @de_nas_5gs_mm_ladn_indic(ptr noundef %0, ptr noundef %1, ptr noundef %2, i32 noundef %3, i32 noundef %4, ptr readnone captures(none) %5, i32 %6) #0 {
  %8 = alloca ptr, align 8
  %9 = alloca i32, align 4
  call void @llvm.lifetime.start.p0(i64 8, ptr nonnull %8) #12
  call void @llvm.lifetime.start.p0(i64 4, ptr nonnull %9) #12
  %.not = icmp eq i32 %4, 0
  br i1 %.not, label %._crit_edge, label %.lr.ph

.lr.ph:                                           ; preds = %7, %de_nas_5gs_cmn_dnn.exit
  %.021 = phi i32 [ %22, %de_nas_5gs_cmn_dnn.exit ], [ %3, %7 ]
  %.01820 = phi i32 [ %26, %de_nas_5gs_cmn_dnn.exit ], [ 1, %7 ]
  %10 = load i32, ptr @ett_nas_5gs_mm_ladn_indic, align 4
  %11 = call ptr (ptr, ptr, i32, i32, i32, ptr, ptr, ...) @proto_tree_add_subtree_format(ptr noundef %1, ptr noundef %0, i32 noundef %.021, i32 noundef 2, i32 noundef %10, ptr noundef nonnull %8, ptr noundef nonnull @.str.1648, i32 noundef %.01820)
  %12 = load i32, ptr @hf_nas_5gs_mm_length, align 4
  %13 = call ptr @proto_tree_add_item_ret_uint(ptr noundef %11, i32 noundef %12, ptr noundef %0, i32 noundef %.021, i32 noundef 1, i32 noundef 0, ptr noundef nonnull %9)
  %14 = add i32 %.021, 1
  %15 = load i32, ptr %9, align 4
  %16 = load i32, ptr @hf_nas_5gs_cmn_dnn, align 4
  %17 = call ptr @proto_tree_add_item(ptr noundef %11, i32 noundef %16, ptr noundef %0, i32 noundef %14, i32 noundef %15, i32 noundef 84)
  %18 = icmp ugt i32 %15, 100
  br i1 %18, label %19, label %de_nas_5gs_cmn_dnn.exit

19:                                               ; preds = %.lr.ph
  %20 = call ptr @expert_add_info(ptr noundef %2, ptr noundef %17, ptr noundef nonnull @ei_nas_5gs_dnn_too_long)
  br label %de_nas_5gs_cmn_dnn.exit

de_nas_5gs_cmn_dnn.exit:                          ; preds = %.lr.ph, %19
  %21 = and i32 %15, 65535
  %22 = add i32 %21, %14
  %23 = load ptr, ptr %8, align 8
  %24 = load i32, ptr %9, align 4
  %25 = add i32 %24, 1
  call void @proto_item_set_len(ptr noundef %23, i32 noundef %25)
  %26 = add i32 %.01820, 1
  %27 = sub i32 %22, %3
  %28 = icmp ult i32 %27, %4
  br i1 %28, label %.lr.ph, label %._crit_edge, !llvm.loop !17

._crit_edge:                                      ; preds = %de_nas_5gs_cmn_dnn.exit, %7
  %29 = trunc i32 %4 to i16
  call void @llvm.lifetime.end.p0(i64 4, ptr nonnull %9) #12
  call void @llvm.lifetime.end.p0(i64 8, ptr nonnull %8) #12
  ret i16 %29
}